target datalayout = "e-m:e-p270:32:32-p271:32:32-p272:64:64-i64:64-i128:128-f80:128-n8:16:32:64-S128"
target triple = "x86_64-pc-linux-gnu"

%struct.SDL_Renderer = type { ptr, ptr, ptr, ptr, ptr, ptr, ptr, ptr, ptr, ptr, ptr, ptr, ptr, ptr, ptr, ptr, ptr, ptr, ptr, ptr, ptr, ptr, ptr, ptr, ptr, ptr, ptr, ptr, ptr, ptr, i32, i8, ptr, i8, i8, i8, i64, i64, ptr, %struct.SDL_RenderViewState, %struct.SDL_FPoint, i32, i32, ptr, ptr, ptr, i32, float, float, float, float, %struct.SDL_FColor, i32, i32, i32, ptr, ptr, ptr, ptr, i32, %struct.SDL_FColor, float, %struct.SDL_Rect, %struct.SDL_Rect, i8, i8, i8, i8, ptr, i64, i64, i8, ptr, ptr, i32, ptr, i8, ptr, ptr }
%struct.SDL_RenderViewState = type { i32, i32, %struct.SDL_Rect, %struct.SDL_Rect, %struct.SDL_Rect, %struct.SDL_Rect, i8, %struct.SDL_FPoint, i32, i32, i32, %struct.SDL_FRect, %struct.SDL_FRect, %struct.SDL_FPoint, %struct.SDL_FPoint, %struct.SDL_FPoint }
%struct.SDL_FRect = type { float, float, float, float }
%struct.SDL_FPoint = type { float, float }
%struct.SDL_FColor = type { float, float, float, float }
%struct.SDL_Rect = type { i32, i32, i32, i32 }

@.str.2 = private unnamed_addr constant [26 x i8] c"Parameter '%s' is invalid\00", align 1
@.str.5 = private unnamed_addr constant [9 x i8] c"renderer\00", align 1
@.str.29 = private unnamed_addr constant [56 x i8] c"Renderer's window has been destroyed, can't use further\00", align 1
@.str.54 = private unnamed_addr constant [32 x i8] c"That operation is not supported\00", align 1
@.str.91 = private unnamed_addr constant [19 x i8] c"SDL.renderer.vsync\00", align 1

; Function Attrs: nounwind uwtable
define hidden i32 @SDL_GetRendererProperties_REAL(ptr noundef %0) #0 {
  %2 = alloca i32, align 4
  %3 = alloca ptr, align 8
  store ptr %0, ptr %3, align 8
  %4 = load ptr, ptr %3, align 8
  %5 = call zeroext i1 @SDL_ObjectValid(ptr noundef %4, i32 noundef 2)
  br i1 %5, label %8, label %6

6:                                                ; preds = %1
  %7 = call zeroext i1 (ptr, ...) @SDL_SetError_REAL(ptr noundef @.str.2, ptr noundef @.str.5)
  store i32 0, ptr %2, align 4
  br label %28

8:                                                ; preds = %1
  %9 = load ptr, ptr %3, align 8
  %10 = getelementptr inbounds nuw %struct.SDL_Renderer, ptr %9, i32 0, i32 76
  %11 = load i8, ptr %10, align 8, !range !5, !noundef !6
  %12 = trunc i8 %11 to i1
  br i1 %12, label %13, label %15

13:                                               ; preds = %8
  %14 = call zeroext i1 (ptr, ...) @SDL_SetError_REAL(ptr noundef @.str.29)
  store i32 0, ptr %2, align 4
  br label %28

15:                                               ; preds = %8
  %16 = load ptr, ptr %3, align 8
  %17 = getelementptr inbounds nuw %struct.SDL_Renderer, ptr %16, i32 0, i32 74
  %18 = load i32, ptr %17, align 8
  %19 = icmp eq i32 %18, 0
  br i1 %19, label %20, label %24

20:                                               ; preds = %15
  %21 = call i32 @SDL_CreateProperties_REAL()
  %22 = load ptr, ptr %3, align 8
  %23 = getelementptr inbounds nuw %struct.SDL_Renderer, ptr %22, i32 0, i32 74
  store i32 %21, ptr %23, align 8
  br label %24

24:                                               ; preds = %20, %15
  %25 = load ptr, ptr %3, align 8
  %26 = getelementptr inbounds nuw %struct.SDL_Renderer, ptr %25, i32 0, i32 74
  %27 = load i32, ptr %26, align 8
  store i32 %27, ptr %2, align 4
  br label %28

28:                                               ; preds = %24, %13, %6
  %29 = load i32, ptr %2, align 4
  ret i32 %29
}

; Function Attrs: nounwind uwtable
define hidden zeroext i1 @SDL_SetRenderVSync_REAL(ptr noundef %0, i32 noundef %1) #0 {
  %3 = alloca i1, align 1
  %4 = alloca ptr, align 8
  %5 = alloca i32, align 4
  store ptr %0, ptr %4, align 8
  store i32 %1, ptr %5, align 4
  %6 = load ptr, ptr %4, align 8
  %7 = call zeroext i1 @SDL_ObjectValid(ptr noundef %6, i32 noundef 2)
  br i1 %7, label %10, label %8

8:                                                ; preds = %2
  %9 = call zeroext i1 (ptr, ...) @SDL_SetError_REAL(ptr noundef @.str.2, ptr noundef @.str.5)
  store i1 false, ptr %3, align 1
  br label %79

10:                                               ; preds = %2
  %11 = load ptr, ptr %4, align 8
  %12 = getelementptr inbounds nuw %struct.SDL_Renderer, ptr %11, i32 0, i32 76
  %13 = load i8, ptr %12, align 8, !range !5, !noundef !6
  %14 = trunc i8 %13 to i1
  br i1 %14, label %15, label %17

15:                                               ; preds = %10
  %16 = call zeroext i1 (ptr, ...) @SDL_SetError_REAL(ptr noundef @.str.29)
  store i1 false, ptr %3, align 1
  br label %79

17:                                               ; preds = %10
  %18 = load i32, ptr %5, align 4
  %19 = icmp ne i32 %18, 0
  %20 = select i1 %19, i32 1, i32 0
  %21 = icmp ne i32 %20, 0
  %22 = load ptr, ptr %4, align 8
  %23 = getelementptr inbounds nuw %struct.SDL_Renderer, ptr %22, i32 0, i32 34
  %24 = zext i1 %21 to i8
  store i8 %24, ptr %23, align 1
  %25 = load ptr, ptr %4, align 8
  %26 = getelementptr inbounds nuw %struct.SDL_Renderer, ptr %25, i32 0, i32 31
  %27 = load i8, ptr %26, align 4, !range !5, !noundef !6
  %28 = trunc i8 %27 to i1
  br i1 %28, label %29, label %50

29:                                               ; preds = %17
  %30 = load ptr, ptr %4, align 8
  %31 = getelementptr inbounds nuw %struct.SDL_Renderer, ptr %30, i32 0, i32 32
  %32 = load ptr, ptr %31, align 8
  %33 = icmp ne ptr %32, null
  br i1 %33, label %40, label %34

34:                                               ; preds = %29
  %35 = load i32, ptr %5, align 4
  %36 = icmp ne i32 %35, 0
  br i1 %36, label %38, label %37

37:                                               ; preds = %34
  store i1 true, ptr %3, align 1
  br label %79

38:                                               ; preds = %34
  %39 = call zeroext i1 (ptr, ...) @SDL_SetError_REAL(ptr noundef @.str.54)
  store i1 %39, ptr %3, align 1
  br label %79

40:                                               ; preds = %29
  %41 = load ptr, ptr %4, align 8
  %42 = getelementptr inbounds nuw %struct.SDL_Renderer, ptr %41, i32 0, i32 32
  %43 = load ptr, ptr %42, align 8
  %44 = load i32, ptr %5, align 4
  %45 = call zeroext i1 @SDL_SetWindowTextureVSync(ptr noundef null, ptr noundef %43, i32 noundef %44)
  br i1 %45, label %46, label %49

46:                                               ; preds = %40
  %47 = load ptr, ptr %4, align 8
  %48 = getelementptr inbounds nuw %struct.SDL_Renderer, ptr %47, i32 0, i32 35
  store i8 0, ptr %48, align 2
  store i1 true, ptr %3, align 1
  br label %79

49:                                               ; preds = %40
  br label %50

50:                                               ; preds = %49, %17
  %51 = load ptr, ptr %4, align 8
  %52 = getelementptr inbounds nuw %struct.SDL_Renderer, ptr %51, i32 0, i32 24
  %53 = load ptr, ptr %52, align 8
  %54 = icmp ne ptr %53, null
  br i1 %54, label %55, label %62

55:                                               ; preds = %50
  %56 = load ptr, ptr %4, align 8
  %57 = getelementptr inbounds nuw %struct.SDL_Renderer, ptr %56, i32 0, i32 24
  %58 = load ptr, ptr %57, align 8
  %59 = load ptr, ptr %4, align 8
  %60 = load i32, ptr %5, align 4
  %61 = call zeroext i1 %58(ptr noundef %59, i32 noundef %60)
  br i1 %61, label %73, label %62

62:                                               ; preds = %55, %50
  %63 = load i32, ptr %5, align 4
  switch i32 %63, label %70 [
    i32 0, label %64
    i32 1, label %67
  ]

64:                                               ; preds = %62
  %65 = load ptr, ptr %4, align 8
  %66 = getelementptr inbounds nuw %struct.SDL_Renderer, ptr %65, i32 0, i32 35
  store i8 0, ptr %66, align 2
  br label %72

67:                                               ; preds = %62
  %68 = load ptr, ptr %4, align 8
  %69 = getelementptr inbounds nuw %struct.SDL_Renderer, ptr %68, i32 0, i32 35
  store i8 1, ptr %69, align 2
  br label %72

70:                                               ; preds = %62
  %71 = call zeroext i1 (ptr, ...) @SDL_SetError_REAL(ptr noundef @.str.54)
  store i1 %71, ptr %3, align 1
  br label %79

72:                                               ; preds = %67, %64
  br label %73

73:                                               ; preds = %72, %55
  %74 = load ptr, ptr %4, align 8
  %75 = call i32 @SDL_GetRendererProperties_REAL(ptr noundef %74)
  %76 = load i32, ptr %5, align 4
  %77 = sext i32 %76 to i64
  %78 = call zeroext i1 @SDL_SetNumberProperty_REAL(i32 noundef %75, ptr noundef @.str.91, i64 noundef %77)
  store i1 true, ptr %3, align 1
  br label %79

79:                                               ; preds = %73, %70, %46, %38, %37, %15, %8
  %80 = load i1, ptr %3, align 1
  ret i1 %80
}