; Function Attrs: nounwind uwtable
define hidden zeroext i1 @SDL_SetRenderVSync_REAL(ptr noundef %0, i32 noundef %1) local_unnamed_addr #0 {
  %3 = tail call zeroext i1 @SDL_ObjectValid(ptr noundef %0, i32 noundef 2) #15
  br i1 %3, label %6, label %4

4:                                                ; preds = %2
  %5 = tail call zeroext i1 (ptr, ...) @SDL_SetError_REAL(ptr noundef nonnull @.str.2, ptr noundef nonnull @.str.5) #15
  br label %56

6:                                                ; preds = %2
  %7 = getelementptr inbounds nuw i8, ptr %0, i64 688
  %8 = load i8, ptr %7, align 8, !range !3, !noundef !4
  %9 = trunc nuw i8 %8 to i1
  br i1 %9, label %10, label %12

10:                                               ; preds = %6
  %11 = tail call zeroext i1 (ptr, ...) @SDL_SetError_REAL(ptr noundef nonnull @.str.29) #15
  br label %56

12:                                               ; preds = %6
  %13 = icmp ne i32 %1, 0
  %14 = getelementptr inbounds nuw i8, ptr %0, i64 257
  %15 = zext i1 %13 to i8
  store i8 %15, ptr %14, align 1
  %16 = getelementptr inbounds nuw i8, ptr %0, i64 244
  %17 = load i8, ptr %16, align 4, !range !3, !noundef !4
  %18 = trunc nuw i8 %17 to i1
  br i1 %18, label %19, label %29

19:                                               ; preds = %12
  %20 = getelementptr inbounds nuw i8, ptr %0, i64 248
  %21 = load ptr, ptr %20, align 8
  %.not = icmp eq ptr %21, null
  br i1 %.not, label %22, label %25

22:                                               ; preds = %19
  br i1 %13, label %23, label %56

23:                                               ; preds = %22
  %24 = tail call zeroext i1 (ptr, ...) @SDL_SetError_REAL(ptr noundef nonnull @.str.54) #15
  br label %56

25:                                               ; preds = %19
  %26 = tail call zeroext i1 @SDL_SetWindowTextureVSync(ptr noundef null, ptr noundef nonnull %21, i32 noundef %1) #15
  br i1 %26, label %27, label %29

27:                                               ; preds = %25
  %28 = getelementptr inbounds nuw i8, ptr %0, i64 258
  store i8 0, ptr %28, align 2
  br label %56

29:                                               ; preds = %25, %12
  %30 = getelementptr inbounds nuw i8, ptr %0, i64 192
  %31 = load ptr, ptr %30, align 8
  %.not21 = icmp eq ptr %31, null
  br i1 %.not21, label %34, label %32

32:                                               ; preds = %29
  %33 = tail call zeroext i1 %31(ptr noundef nonnull %0, i32 noundef %1) #15
  br i1 %33, label %39, label %34

34:                                               ; preds = %32, %29
  switch i32 %1, label %36 [
    i32 0, label %.sink.split
    i32 1, label %35
  ]

35:                                               ; preds = %34
  br label %.sink.split

36:                                               ; preds = %34
  %37 = tail call zeroext i1 (ptr, ...) @SDL_SetError_REAL(ptr noundef nonnull @.str.54) #15
  br label %56

.sink.split:                                      ; preds = %34, %35
  %.sink = phi i8 [ 1, %35 ], [ 0, %34 ]
  %38 = getelementptr inbounds nuw i8, ptr %0, i64 258
  store i8 %.sink, ptr %38, align 2
  br label %39

39:                                               ; preds = %.sink.split, %32
  %40 = tail call zeroext i1 @SDL_ObjectValid(ptr noundef nonnull %0, i32 noundef 2) #15
  br i1 %40, label %43, label %41

41:                                               ; preds = %39
  %42 = tail call zeroext i1 (ptr, ...) @SDL_SetError_REAL(ptr noundef nonnull @.str.2, ptr noundef nonnull @.str.5) #15
  br label %SDL_GetRendererProperties_REAL.exit

43:                                               ; preds = %39
  %44 = load i8, ptr %7, align 8, !range !3, !noundef !4
  %45 = trunc nuw i8 %44 to i1
  br i1 %45, label %46, label %48

46:                                               ; preds = %43
  %47 = tail call zeroext i1 (ptr, ...) @SDL_SetError_REAL(ptr noundef nonnull @.str.29) #15
  br label %SDL_GetRendererProperties_REAL.exit

48:                                               ; preds = %43
  %49 = getelementptr inbounds nuw i8, ptr %0, i64 672
  %50 = load i32, ptr %49, align 8
  %51 = icmp eq i32 %50, 0
  br i1 %51, label %52, label %SDL_GetRendererProperties_REAL.exit

52:                                               ; preds = %48
  %53 = tail call i32 @SDL_CreateProperties_REAL() #15
  store i32 %53, ptr %49, align 8
  br label %SDL_GetRendererProperties_REAL.exit

SDL_GetRendererProperties_REAL.exit:              ; preds = %41, %46, %48, %52
  %.0.i = phi i32 [ 0, %46 ], [ 0, %41 ], [ %53, %52 ], [ %50, %48 ]
  %54 = sext i32 %1 to i64
  %55 = tail call zeroext i1 @SDL_SetNumberProperty_REAL(i32 noundef %.0.i, ptr noundef nonnull @.str.91, i64 noundef %54) #15
  br label %56

56:                                               ; preds = %22, %SDL_GetRendererProperties_REAL.exit, %36, %27, %23, %10, %4
  %.0 = phi i1 [ false, %10 ], [ true, %27 ], [ true, %SDL_GetRendererProperties_REAL.exit ], [ %37, %36 ], [ %24, %23 ], [ false, %4 ], [ true, %22 ]
  ret i1 %.0
}